; Function Attrs: mustprogress nofree norecurse nosync nounwind willreturn memory(argmem: readwrite) uwtable
define void @_ZNK2cv4cuda6GpuMat9locateROIERNS_5Size_IiEERNS_6Point_IiEE(ptr noundef nonnull readonly align 8 captures(none) dereferenceable(64) %0, ptr noundef nonnull writeonly align 4 captures(none) dereferenceable(8) initializes((0, 8)) %1, ptr noundef nonnull writeonly align 4 captures(none) dereferenceable(8) initializes((0, 8)) %2) local_unnamed_addr #5 align 2 {
  %4 = load i32, ptr %0, align 8, !tbaa !17
  %5 = lshr i32 %4, 3
  %6 = and i32 %5, 511
  %7 = add nuw nsw i32 %6, 1
  %8 = shl i32 %4, 2
  %9 = and i32 %8, 28
  %10 = lshr i32 675553809, %9
  %11 = and i32 %10, 15
  %12 = mul nuw nsw i32 %11, %7
  %13 = zext nneg i32 %12 to i64
  %14 = getelementptr inbounds nuw i8, ptr %0, i64 24
  %15 = load ptr, ptr %14, align 8, !tbaa !18
  %16 = getelementptr inbounds nuw i8, ptr %0, i64 40
  %17 = load ptr, ptr %16, align 8, !tbaa !20
  %18 = ptrtoint ptr %17 to i64
  %19 = getelementptr inbounds nuw i8, ptr %0, i64 48
  %20 = load ptr, ptr %19, align 8, !tbaa !22
  %21 = icmp eq ptr %15, %17
  br i1 %21, label %22, label %23

22:                                               ; preds = %3
  %.phi.trans.insert = getelementptr inbounds nuw i8, ptr %0, i64 16
  %.pre = load i64, ptr %.phi.trans.insert, align 8, !tbaa !15
  br label %35

23:                                               ; preds = %3
  %24 = ptrtoint ptr %15 to i64
  %25 = sub i64 %24, %18
  %26 = getelementptr inbounds nuw i8, ptr %0, i64 16
  %27 = load i64, ptr %26, align 8, !tbaa !15
  %28 = udiv i64 %25, %27
  %29 = trunc i64 %28 to i32
  %sext = shl i64 %28, 32
  %30 = ashr exact i64 %sext, 32
  %31 = mul i64 %30, %27
  %32 = sub i64 %25, %31
  %33 = udiv i64 %32, %13
  %34 = trunc i64 %33 to i32
  br label %35

35:                                               ; preds = %23, %22
  %36 = phi i64 [ %.pre, %22 ], [ %27, %23 ]
  %.sink = phi i32 [ 0, %22 ], [ %29, %23 ]
  %storemerge = phi i32 [ 0, %22 ], [ %34, %23 ]
  %37 = getelementptr inbounds nuw i8, ptr %2, i64 4
  store i32 %.sink, ptr %37, align 4, !tbaa !27
  store i32 %storemerge, ptr %2, align 4, !tbaa !29
  %38 = ptrtoint ptr %20 to i64
  %39 = sub i64 %38, %18
  %40 = getelementptr inbounds nuw i8, ptr %0, i64 8
  %41 = load i32, ptr %40, align 8, !tbaa !14
  %42 = add nsw i32 %41, %storemerge
  %43 = sext i32 %42 to i64
  %44 = mul nsw i64 %43, %13
  %45 = sub i64 %39, %44
  %46 = udiv i64 %45, %36
  %47 = trunc i64 %46 to i32
  %48 = add i32 %47, 1
  %49 = getelementptr inbounds nuw i8, ptr %0, i64 4
  %50 = load i32, ptr %49, align 4, !tbaa !3
  %51 = add nsw i32 %50, %.sink
  %.sroa.speculated24 = tail call i32 @llvm.smax.i32(i32 %48, i32 %51)
  %52 = getelementptr inbounds nuw i8, ptr %1, i64 4
  store i32 %.sroa.speculated24, ptr %52, align 4, !tbaa !30
  %53 = add nsw i32 %.sroa.speculated24, -1
  %54 = sext i32 %53 to i64
  %55 = mul i64 %36, %54
  %56 = sub i64 %39, %55
  %57 = udiv i64 %56, %13
  %58 = trunc i64 %57 to i32
  %.sroa.speculated = tail call i32 @llvm.smax.i32(i32 %42, i32 %58)
  store i32 %.sroa.speculated, ptr %1, align 4, !tbaa !32
  ret void
}